target datalayout = "e-m:e-p270:32:32-p271:32:32-p272:64:64-i64:64-i128:128-f80:128-n8:16:32:64-S128"
target triple = "x86_64-pc-linux-gnu"

%struct._ftype_t = type { i32, i32, ptr, ptr, ptr, ptr, ptr, ptr, ptr, ptr, ptr, ptr, ptr, ptr, ptr, %union.anon, %union.anon.0, ptr, ptr, ptr, ptr, ptr, ptr, ptr, ptr, ptr, ptr, ptr, ptr, ptr, ptr, ptr }
%union.anon = type { ptr }
%union.anon.0 = type { ptr }
%struct._fvalue_t = type { ptr, %union.anon.1 }
%union.anon.1 = type { %struct._protocol_value_t }
%struct._protocol_value_t = type { ptr, i32, ptr, i8 }
%struct.slice_data_t = type { ptr, ptr, i8 }

@.str.102 = private unnamed_addr constant [1 x i8] zeroinitializer, align 1
@.str.103 = private unnamed_addr constant [21 x i8] c"epan/ftypes/ftypes.c\00", align 1
@__func__.fvalue_length2 = private unnamed_addr constant [15 x i8] c"fvalue_length2\00", align 1
@.str.104 = private unnamed_addr constant [23 x i8] c"fv->ftype->len is NULL\00", align 1
@__func__.compute_drnode = private unnamed_addr constant [15 x i8] c"compute_drnode\00", align 1
@.str.107 = private unnamed_addr constant [31 x i8] c"assertion \22not reached\22 failed\00", align 1

; Function Attrs: null_pointer_is_valid sspstrong uwtable
define internal zeroext i1 @compute_drnode(i64 noundef %0, ptr noundef %1, ptr noundef %2, ptr noundef %3) #0 {
  %5 = alloca i1, align 1
  %6 = alloca i64, align 8
  %7 = alloca ptr, align 8
  %8 = alloca ptr, align 8
  %9 = alloca ptr, align 8
  %10 = alloca i64, align 8
  %11 = alloca i64, align 8
  %12 = alloca i64, align 8
  %13 = alloca i32, align 4
  %14 = alloca i32, align 4
  store i64 %0, ptr %6, align 8
  store ptr %1, ptr %7, align 8
  store ptr %2, ptr %8, align 8
  store ptr %3, ptr %9, align 8
  call void @llvm.lifetime.start.p0(i64 8, ptr %10) #9
  call void @llvm.lifetime.start.p0(i64 8, ptr %11) #9
  store i64 0, ptr %11, align 8
  call void @llvm.lifetime.start.p0(i64 8, ptr %12) #9
  store i64 0, ptr %12, align 8
  call void @llvm.lifetime.start.p0(i64 4, ptr %13) #9
  %15 = load ptr, ptr %7, align 8
  %16 = call i32 @drange_node_get_start_offset(ptr noundef %15)
  %17 = sext i32 %16 to i64
  store i64 %17, ptr %10, align 8
  %18 = load ptr, ptr %7, align 8
  %19 = call i32 @drange_node_get_ending(ptr noundef %18)
  store i32 %19, ptr %13, align 4
  %20 = load i64, ptr %10, align 8
  %21 = icmp slt i64 %20, 0
  br i1 %21, label %22, label %30

22:                                               ; preds = %4
  %23 = load i64, ptr %6, align 8
  %24 = load i64, ptr %10, align 8
  %25 = add i64 %23, %24
  store i64 %25, ptr %10, align 8
  %26 = load i64, ptr %10, align 8
  %27 = icmp slt i64 %26, 0
  br i1 %27, label %28, label %29

28:                                               ; preds = %22
  store i1 false, ptr %5, align 1
  store i32 1, ptr %14, align 4
  br label %96

29:                                               ; preds = %22
  br label %30

30:                                               ; preds = %29, %4
  %31 = load i32, ptr %13, align 4
  %32 = icmp eq i32 %31, 3
  br i1 %32, label %33, label %41

33:                                               ; preds = %30
  %34 = load i64, ptr %6, align 8
  %35 = load i64, ptr %10, align 8
  %36 = sub i64 %34, %35
  store i64 %36, ptr %11, align 8
  %37 = load i64, ptr %11, align 8
  %38 = icmp sle i64 %37, 0
  br i1 %38, label %39, label %40

39:                                               ; preds = %33
  store i1 false, ptr %5, align 1
  store i32 1, ptr %14, align 4
  br label %96

40:                                               ; preds = %33
  br label %91

41:                                               ; preds = %30
  %42 = load i32, ptr %13, align 4
  %43 = icmp eq i32 %42, 1
  br i1 %43, label %44, label %57

44:                                               ; preds = %41
  %45 = load ptr, ptr %7, align 8
  %46 = call i32 @drange_node_get_length(ptr noundef %45)
  %47 = sext i32 %46 to i64
  store i64 %47, ptr %11, align 8
  %48 = load i64, ptr %10, align 8
  %49 = load i64, ptr %11, align 8
  %50 = add i64 %48, %49
  %51 = load i64, ptr %6, align 8
  %52 = trunc i64 %51 to i32
  %53 = sext i32 %52 to i64
  %54 = icmp sgt i64 %50, %53
  br i1 %54, label %55, label %56

55:                                               ; preds = %44
  store i1 false, ptr %5, align 1
  store i32 1, ptr %14, align 4
  br label %96

56:                                               ; preds = %44
  br label %90

57:                                               ; preds = %41
  %58 = load i32, ptr %13, align 4
  %59 = icmp eq i32 %58, 2
  br i1 %59, label %60, label %88

60:                                               ; preds = %57
  %61 = load ptr, ptr %7, align 8
  %62 = call i32 @drange_node_get_end_offset(ptr noundef %61)
  %63 = sext i32 %62 to i64
  store i64 %63, ptr %12, align 8
  %64 = load i64, ptr %12, align 8
  %65 = icmp slt i64 %64, 0
  br i1 %65, label %66, label %75

66:                                               ; preds = %60
  %67 = load i64, ptr %6, align 8
  %68 = load i64, ptr %12, align 8
  %69 = add i64 %67, %68
  store i64 %69, ptr %12, align 8
  %70 = load i64, ptr %12, align 8
  %71 = load i64, ptr %10, align 8
  %72 = icmp slt i64 %70, %71
  br i1 %72, label %73, label %74

73:                                               ; preds = %66
  store i1 false, ptr %5, align 1
  store i32 1, ptr %14, align 4
  br label %96

74:                                               ; preds = %66
  br label %83

75:                                               ; preds = %60
  %76 = load i64, ptr %12, align 8
  %77 = load i64, ptr %6, align 8
  %78 = trunc i64 %77 to i32
  %79 = sext i32 %78 to i64
  %80 = icmp sge i64 %76, %79
  br i1 %80, label %81, label %82

81:                                               ; preds = %75
  store i1 false, ptr %5, align 1
  store i32 1, ptr %14, align 4
  br label %96

82:                                               ; preds = %75
  br label %83

83:                                               ; preds = %82, %74
  %84 = load i64, ptr %12, align 8
  %85 = load i64, ptr %10, align 8
  %86 = sub i64 %84, %85
  %87 = add i64 %86, 1
  store i64 %87, ptr %11, align 8
  br label %89

88:                                               ; preds = %57
  call void (ptr, i32, ptr, i64, ptr, ptr, ...) @ws_log_fatal_full(ptr noundef @.str.102, i32 noundef 7, ptr noundef @.str.103, i64 noundef 845, ptr noundef @__func__.compute_drnode, ptr noundef @.str.107) #11
  unreachable

89:                                               ; preds = %83
  br label %90

90:                                               ; preds = %89, %56
  br label %91

91:                                               ; preds = %90, %40
  %92 = load i64, ptr %10, align 8
  %93 = load ptr, ptr %8, align 8
  store i64 %92, ptr %93, align 8
  %94 = load i64, ptr %11, align 8
  %95 = load ptr, ptr %9, align 8
  store i64 %94, ptr %95, align 8
  store i1 true, ptr %5, align 1
  store i32 1, ptr %14, align 4
  br label %96

96:                                               ; preds = %91, %81, %73, %55, %39, %28
  call void @llvm.lifetime.end.p0(i64 4, ptr %13) #9
  call void @llvm.lifetime.end.p0(i64 8, ptr %12) #9
  call void @llvm.lifetime.end.p0(i64 8, ptr %11) #9
  call void @llvm.lifetime.end.p0(i64 8, ptr %10) #9
  %97 = load i1, ptr %5, align 1
  ret i1 %97
}

; Function Attrs: null_pointer_is_valid sspstrong uwtable
define i64 @fvalue_length2(ptr noundef %0) #0 {
  %2 = alloca i64, align 8
  %3 = alloca ptr, align 8
  store ptr %0, ptr %3, align 8
  %4 = load ptr, ptr %3, align 8
  %5 = getelementptr inbounds nuw %struct._fvalue_t, ptr %4, i32 0, i32 0
  %6 = load ptr, ptr %5, align 8
  %7 = getelementptr inbounds nuw %struct._ftype_t, ptr %6, i32 0, i32 23
  %8 = load ptr, ptr %7, align 8
  %9 = icmp ne ptr %8, null
  br i1 %9, label %13, label %10

10:                                               ; preds = %1
  br label %11

11:                                               ; preds = %10
  call void (ptr, i32, ptr, i64, ptr, ptr, ...) @ws_log_full(ptr noundef @.str.102, i32 noundef 6, ptr noundef @.str.103, i64 noundef 715, ptr noundef @__func__.fvalue_length2, ptr noundef @.str.104)
  br label %12

12:                                               ; preds = %11
  store i64 0, ptr %2, align 8
  br label %22

13:                                               ; preds = %1
  %14 = load ptr, ptr %3, align 8
  %15 = getelementptr inbounds nuw %struct._fvalue_t, ptr %14, i32 0, i32 0
  %16 = load ptr, ptr %15, align 8
  %17 = getelementptr inbounds nuw %struct._ftype_t, ptr %16, i32 0, i32 23
  %18 = load ptr, ptr %17, align 8
  %19 = load ptr, ptr %3, align 8
  %20 = call i32 %18(ptr noundef %19)
  %21 = zext i32 %20 to i64
  store i64 %21, ptr %2, align 8
  br label %22

22:                                               ; preds = %13, %12
  %23 = load i64, ptr %2, align 8
  ret i64 %23
}

; Function Attrs: null_pointer_is_valid sspstrong uwtable
define internal void @slice_func(ptr noundef %0, ptr noundef %1) #0 {
  %3 = alloca ptr, align 8
  %4 = alloca ptr, align 8
  %5 = alloca ptr, align 8
  %6 = alloca ptr, align 8
  %7 = alloca i64, align 8
  %8 = alloca i64, align 8
  %9 = alloca ptr, align 8
  %10 = alloca i32, align 4
  store ptr %0, ptr %3, align 8
  store ptr %1, ptr %4, align 8
  call void @llvm.lifetime.start.p0(i64 8, ptr %5) #9
  %11 = load ptr, ptr %3, align 8
  store ptr %11, ptr %5, align 8
  call void @llvm.lifetime.start.p0(i64 8, ptr %6) #9
  %12 = load ptr, ptr %4, align 8
  store ptr %12, ptr %6, align 8
  call void @llvm.lifetime.start.p0(i64 8, ptr %7) #9
  call void @llvm.lifetime.start.p0(i64 8, ptr %8) #9
  store i64 0, ptr %8, align 8
  call void @llvm.lifetime.start.p0(i64 8, ptr %9) #9
  %13 = load ptr, ptr %6, align 8
  %14 = getelementptr inbounds nuw %struct.slice_data_t, ptr %13, i32 0, i32 2
  %15 = load i8, ptr %14, align 8, !range !6, !noundef !7
  %16 = trunc i8 %15 to i1
  br i1 %16, label %17, label %18

17:                                               ; preds = %2
  store i32 1, ptr %10, align 4
  br label %48

18:                                               ; preds = %2
  %19 = load ptr, ptr %6, align 8
  %20 = getelementptr inbounds nuw %struct.slice_data_t, ptr %19, i32 0, i32 0
  %21 = load ptr, ptr %20, align 8
  store ptr %21, ptr %9, align 8
  %22 = load ptr, ptr %9, align 8
  %23 = call i64 @fvalue_length2(ptr noundef %22)
  %24 = trunc i64 %23 to i32
  %25 = zext i32 %24 to i64
  %26 = load ptr, ptr %5, align 8
  %27 = call zeroext i1 @compute_drnode(i64 noundef %25, ptr noundef %26, ptr noundef %7, ptr noundef %8)
  br i1 %27, label %31, label %28

28:                                               ; preds = %18
  %29 = load ptr, ptr %6, align 8
  %30 = getelementptr inbounds nuw %struct.slice_data_t, ptr %29, i32 0, i32 2
  store i8 1, ptr %30, align 8
  store i32 1, ptr %10, align 4
  br label %48

31:                                               ; preds = %18
  br label %32

32:                                               ; preds = %31
  br label %33

33:                                               ; preds = %32
  br label %34

34:                                               ; preds = %33
  %35 = load ptr, ptr %9, align 8
  %36 = getelementptr inbounds nuw %struct._fvalue_t, ptr %35, i32 0, i32 0
  %37 = load ptr, ptr %36, align 8
  %38 = getelementptr inbounds nuw %struct._ftype_t, ptr %37, i32 0, i32 24
  %39 = load ptr, ptr %38, align 8
  %40 = load ptr, ptr %9, align 8
  %41 = load ptr, ptr %6, align 8
  %42 = getelementptr inbounds nuw %struct.slice_data_t, ptr %41, i32 0, i32 1
  %43 = load ptr, ptr %42, align 8
  %44 = load i64, ptr %7, align 8
  %45 = trunc i64 %44 to i32
  %46 = load i64, ptr %8, align 8
  %47 = trunc i64 %46 to i32
  call void %39(ptr noundef %40, ptr noundef %43, i32 noundef %45, i32 noundef %47)
  store i32 0, ptr %10, align 4
  br label %48

48:                                               ; preds = %34, %28, %17
  call void @llvm.lifetime.end.p0(i64 8, ptr %9) #9
  call void @llvm.lifetime.end.p0(i64 8, ptr %8) #9
  call void @llvm.lifetime.end.p0(i64 8, ptr %7) #9
  call void @llvm.lifetime.end.p0(i64 8, ptr %6) #9
  call void @llvm.lifetime.end.p0(i64 8, ptr %5) #9
  %49 = load i32, ptr %10, align 4
  switch i32 %49, label %51 [
    i32 0, label %50
    i32 1, label %50
  ]

50:                                               ; preds = %48, %48
  ret void

51:                                               ; preds = %48
  unreachable
}