; Function Attrs: null_pointer_is_valid sspstrong uwtable
define internal void @slice_func(ptr noundef %0, ptr noundef captures(none) %1) #0 {
  %3 = getelementptr inbounds nuw i8, ptr %1, i64 16
  %4 = load i8, ptr %3, align 8, !range !8, !noundef !9
  %5 = trunc nuw i8 %4 to i1
  br i1 %5, label %52, label %6

6:                                                ; preds = %2
  %7 = load ptr, ptr %1, align 8
  %8 = load ptr, ptr %7, align 8
  %9 = getelementptr inbounds nuw i8, ptr %8, i64 176
  %10 = load ptr, ptr %9, align 8
  %.not.i = icmp eq ptr %10, null
  br i1 %.not.i, label %11, label %12

11:                                               ; preds = %6
  tail call void (ptr, i32, ptr, i64, ptr, ptr, ...) @ws_log_full(ptr noundef nonnull @.str.102, i32 noundef 6, ptr noundef nonnull @.str.103, i64 noundef 715, ptr noundef nonnull @__func__.fvalue_length2, ptr noundef nonnull @.str.104)
  br label %fvalue_length2.exit

12:                                               ; preds = %6
  %13 = tail call i32 %10(ptr noundef %7)
  %14 = zext i32 %13 to i64
  br label %fvalue_length2.exit

fvalue_length2.exit:                              ; preds = %11, %12
  %.0.i = phi i64 [ %14, %12 ], [ 0, %11 ]
  %15 = tail call i32 @drange_node_get_start_offset(ptr noundef %0)
  %16 = sext i32 %15 to i64
  %17 = tail call i32 @drange_node_get_ending(ptr noundef %0)
  %18 = icmp slt i32 %15, 0
  br i1 %18, label %19, label %22

19:                                               ; preds = %fvalue_length2.exit
  %20 = add nsw i64 %.0.i, %16
  %21 = icmp slt i64 %20, 0
  br i1 %21, label %44, label %22

22:                                               ; preds = %19, %fvalue_length2.exit
  %.032.i = phi i64 [ %20, %19 ], [ %16, %fvalue_length2.exit ]
  switch i32 %17, label %43 [
    i32 3, label %23
    i32 1, label %26
    i32 2, label %32
  ]

23:                                               ; preds = %22
  %24 = sub nsw i64 %.0.i, %.032.i
  %25 = icmp slt i64 %24, 1
  br i1 %25, label %44, label %compute_drnode.exit

26:                                               ; preds = %22
  %27 = tail call i32 @drange_node_get_length(ptr noundef %0)
  %28 = sext i32 %27 to i64
  %29 = add nsw i64 %.032.i, %28
  %sext40.i = shl nuw i64 %.0.i, 32
  %30 = ashr exact i64 %sext40.i, 32
  %31 = icmp sgt i64 %29, %30
  br i1 %31, label %44, label %compute_drnode.exit

32:                                               ; preds = %22
  %33 = tail call i32 @drange_node_get_end_offset(ptr noundef %0)
  %34 = sext i32 %33 to i64
  %35 = icmp slt i32 %33, 0
  br i1 %35, label %36, label %39

36:                                               ; preds = %32
  %37 = add nsw i64 %.0.i, %34
  %38 = icmp slt i64 %37, %.032.i
  br i1 %38, label %44, label %41

39:                                               ; preds = %32
  %sext.i = shl nuw i64 %.0.i, 32
  %40 = ashr exact i64 %sext.i, 32
  %.not.i10 = icmp sgt i64 %40, %34
  br i1 %.not.i10, label %41, label %44

41:                                               ; preds = %39, %36
  %.030.i = phi i64 [ %37, %36 ], [ %34, %39 ]
  %reass.sub = sub nsw i64 %.030.i, %.032.i
  %42 = add nsw i64 %reass.sub, 1
  br label %compute_drnode.exit

43:                                               ; preds = %22
  tail call void (ptr, i32, ptr, i64, ptr, ptr, ...) @ws_log_fatal_full(ptr noundef nonnull @.str.102, i32 noundef 7, ptr noundef nonnull @.str.103, i64 noundef 845, ptr noundef nonnull @__func__.compute_drnode, ptr noundef nonnull @.str.107) #12
  unreachable

44:                                               ; preds = %19, %23, %26, %36, %39
  store i8 1, ptr %3, align 8
  br label %52

compute_drnode.exit:                              ; preds = %41, %26, %23
  %.031.i = phi i64 [ %24, %23 ], [ %28, %26 ], [ %42, %41 ]
  %45 = load ptr, ptr %7, align 8
  %46 = getelementptr inbounds nuw i8, ptr %45, i64 184
  %47 = load ptr, ptr %46, align 8
  %48 = getelementptr inbounds nuw i8, ptr %1, i64 8
  %49 = load ptr, ptr %48, align 8
  %50 = trunc i64 %.032.i to i32
  %51 = trunc i64 %.031.i to i32
  tail call void %47(ptr noundef %7, ptr noundef %49, i32 noundef %50, i32 noundef %51)
  br label %52

52:                                               ; preds = %2, %compute_drnode.exit, %44
  ret void
}